; Function Attrs: nounwind uwtable
define internal i32 @filter_frame(ptr noundef readonly captures(none) %0, ptr noundef initializes((180, 184)) %1) #1 {
  %3 = getelementptr inbounds nuw i8, ptr %0, i64 16
  %4 = load ptr, ptr %3, align 8, !tbaa !25
  %5 = getelementptr inbounds nuw i8, ptr %4, i64 72
  %6 = load ptr, ptr %5, align 8, !tbaa !4
  %7 = getelementptr inbounds nuw i8, ptr %4, i64 56
  %8 = load ptr, ptr %7, align 8, !tbaa !34
  %9 = load ptr, ptr %8, align 8, !tbaa !35
  %10 = getelementptr inbounds nuw i8, ptr %9, i64 64
  %11 = load i32, ptr %10, align 8, !tbaa !37
  %12 = getelementptr inbounds nuw i8, ptr %1, i64 180
  store i32 %11, ptr %12, align 4, !tbaa !38
  %13 = getelementptr inbounds nuw i8, ptr %6, i64 12
  %14 = load i32, ptr %13, align 4, !tbaa !44
  %.not = icmp eq i32 %14, 0
  br i1 %.not, label %23, label %15

15:                                               ; preds = %2
  %16 = getelementptr inbounds nuw i8, ptr %1, i64 136
  %17 = load i64, ptr %16, align 8, !tbaa !45
  %18 = getelementptr inbounds nuw i8, ptr %0, i64 64
  %19 = load i32, ptr %18, align 8, !tbaa !37
  %20 = sext i32 %19 to i64
  %21 = sext i32 %11 to i64
  %22 = tail call i64 @av_rescale(i64 noundef %17, i64 noundef %20, i64 noundef %21) #7
  store i64 %22, ptr %16, align 8, !tbaa !45
  br label %23

23:                                               ; preds = %15, %2
  %24 = tail call i32 @ff_filter_frame(ptr noundef nonnull %9, ptr noundef nonnull %1) #6
  ret i32 %24
}